target datalayout = "e-m:e-p270:32:32-p271:32:32-p272:64:64-i64:64-i128:128-f80:128-n8:16:32:64-S128"
target triple = "x86_64-pc-linux-gnu"

%struct.Dar_Lib_t_ = type { ptr, i32, i32, [222 x i32], [222 x ptr], ptr, i32, ptr, [222 x ptr], ptr, [222 x ptr], ptr, [222 x ptr], [222 x i32], [222 x ptr], ptr, i32, i32, i32, [222 x i32], [222 x ptr], ptr, i32, [222 x i32], [222 x ptr], ptr, i32, ptr, i32, ptr, ptr, ptr, ptr, ptr }

@s_DarLib = internal global ptr null, align 8

; Function Attrs: nounwind uwtable
define i32 @Dar_LibReturnClass(i32 noundef %0) #0 {
  %2 = alloca i32, align 4
  store i32 %0, ptr %2, align 4
  %3 = load ptr, ptr @s_DarLib, align 8
  %4 = getelementptr inbounds %struct.Dar_Lib_t_, ptr %3, i32 0, i32 33
  %5 = load ptr, ptr %4, align 8
  %6 = load i32, ptr %2, align 4
  %7 = and i32 %6, 65535
  %8 = zext i32 %7 to i64
  %9 = getelementptr inbounds i8, ptr %5, i64 %8
  %10 = load i8, ptr %9, align 1
  %11 = zext i8 %10 to i32
  ret i32 %11
}