; Function Attrs: mustprogress nofree norecurse nosync nounwind willreturn memory(read, inaccessiblemem: none) uwtable
define range(i32 0, 256) i32 @Dar_LibReturnClass(i32 noundef %0) local_unnamed_addr #6 {
  %2 = load ptr, ptr @s_DarLib, align 8
  %3 = getelementptr inbounds nuw i8, ptr %2, i64 16144
  %4 = load ptr, ptr %3, align 8
  %5 = and i32 %0, 65535
  %6 = zext nneg i32 %5 to i64
  %7 = getelementptr inbounds nuw i8, ptr %4, i64 %6
  %8 = load i8, ptr %7, align 1
  %9 = zext i8 %8 to i32
  ret i32 %9
}